; ModuleID = 'source-C-CXX/32/2705.c'
source_filename = "source-C-CXX/32/2705.c"
target datalayout = "e-m:e-p270:32:32-p271:32:32-p272:64:64-i64:64-f80:128-n8:16:32:64-S128"
target triple = "x86_64-pc-linux-gnu"

@.str = private unnamed_addr constant [3 x i8] c"%d\00", align 1
@.str.1 = private unnamed_addr constant [3 x i8] c"%s\00", align 1

; Function Attrs: nofree nounwind sspstrong uwtable
define dso_local i32 @main() local_unnamed_addr #0 {
  %1 = alloca i32, align 4
  %2 = alloca [256 x i8], align 16
  %3 = alloca [256 x i8], align 16
  %4 = bitcast i32* %1 to i8*
  call void @llvm.lifetime.start.p0i8(i64 4, i8* nonnull %4) #5
  %5 = getelementptr inbounds [256 x i8], [256 x i8]* %2, i64 0, i64 0
  call void @llvm.lifetime.start.p0i8(i64 256, i8* nonnull %5) #5
  %6 = getelementptr inbounds [256 x i8], [256 x i8]* %3, i64 0, i64 0
  call void @llvm.lifetime.start.p0i8(i64 256, i8* nonnull %6) #5
  %7 = call i32 (i8*, ...) @__isoc99_scanf(i8* getelementptr inbounds ([3 x i8], [3 x i8]* @.str, i64 0, i64 0), i32* nonnull %1)
  %8 = load i32, i32* %1, align 4, !tbaa !5
  %9 = icmp sgt i32 %8, 0
  br i1 %9, label %10, label %56

10:                                               ; preds = %0, %48
  %11 = phi i32 [ %53, %48 ], [ 0, %0 ]
  %12 = call i32 (i8*, ...) @__isoc99_scanf(i8* getelementptr inbounds ([3 x i8], [3 x i8]* @.str.1, i64 0, i64 0), [256 x i8]* nonnull %2)
  %13 = call i64 @strlen(i8* noundef nonnull %5) #6
  %14 = trunc i64 %13 to i32
  %15 = icmp sgt i32 %14, 0
  br i1 %15, label %16, label %48

16:                                               ; preds = %10
  %17 = and i64 %13, 4294967295
  %18 = and i64 %13, 1
  %19 = icmp eq i64 %17, 1
  br i1 %19, label %36, label %20

20:                                               ; preds = %16
  %21 = sub nsw i64 %17, %18
  br label %22

22:                                               ; preds = %60, %20
  %23 = phi i64 [ 0, %20 ], [ %63, %60 ]
  %24 = phi i64 [ %21, %20 ], [ %64, %60 ]
  %25 = getelementptr inbounds [256 x i8], [256 x i8]* %2, i64 0, i64 %23
  %26 = load i8, i8* %25, align 2, !tbaa !9
  switch i8 %26, label %29 [
    i8 65, label %30
    i8 84, label %27
    i8 67, label %28
  ]

27:                                               ; preds = %22
  br label %30

28:                                               ; preds = %22
  br label %30

29:                                               ; preds = %22
  br label %30

30:                                               ; preds = %22, %28, %29, %27
  %31 = phi i8 [ 71, %28 ], [ 67, %29 ], [ 65, %27 ], [ 84, %22 ]
  %32 = getelementptr inbounds [256 x i8], [256 x i8]* %3, i64 0, i64 %23
  store i8 %31, i8* %32, align 2, !tbaa !9
  %33 = or i64 %23, 1
  %34 = getelementptr inbounds [256 x i8], [256 x i8]* %2, i64 0, i64 %33
  %35 = load i8, i8* %34, align 1, !tbaa !9
  switch i8 %35, label %59 [
    i8 65, label %60
    i8 84, label %58
    i8 67, label %57
  ]

36:                                               ; preds = %60, %16
  %37 = phi i64 [ 0, %16 ], [ %63, %60 ]
  %38 = icmp eq i64 %18, 0
  br i1 %38, label %48, label %39

39:                                               ; preds = %36
  %40 = getelementptr inbounds [256 x i8], [256 x i8]* %2, i64 0, i64 %37
  %41 = load i8, i8* %40, align 1, !tbaa !9
  switch i8 %41, label %44 [
    i8 65, label %45
    i8 84, label %43
    i8 67, label %42
  ]

42:                                               ; preds = %39
  br label %45

43:                                               ; preds = %39
  br label %45

44:                                               ; preds = %39
  br label %45

45:                                               ; preds = %44, %43, %42, %39
  %46 = phi i8 [ 71, %42 ], [ 67, %44 ], [ 65, %43 ], [ 84, %39 ]
  %47 = getelementptr inbounds [256 x i8], [256 x i8]* %3, i64 0, i64 %37
  store i8 %46, i8* %47, align 1, !tbaa !9
  br label %48

48:                                               ; preds = %45, %36, %10
  %49 = shl i64 %13, 32
  %50 = ashr exact i64 %49, 32
  %51 = getelementptr inbounds [256 x i8], [256 x i8]* %3, i64 0, i64 %50
  store i8 0, i8* %51, align 1, !tbaa !9
  %52 = call i32 @puts(i8* nonnull %6)
  %53 = add nuw nsw i32 %11, 1
  %54 = load i32, i32* %1, align 4, !tbaa !5
  %55 = icmp slt i32 %53, %54
  br i1 %55, label %10, label %56, !llvm.loop !10

56:                                               ; preds = %48, %0
  call void @llvm.lifetime.end.p0i8(i64 256, i8* nonnull %6) #5
  call void @llvm.lifetime.end.p0i8(i64 256, i8* nonnull %5) #5
  call void @llvm.lifetime.end.p0i8(i64 4, i8* nonnull %4) #5
  ret i32 0

57:                                               ; preds = %30
  br label %60

58:                                               ; preds = %30
  br label %60

59:                                               ; preds = %30
  br label %60

60:                                               ; preds = %59, %58, %57, %30
  %61 = phi i8 [ 71, %57 ], [ 67, %59 ], [ 65, %58 ], [ 84, %30 ]
  %62 = getelementptr inbounds [256 x i8], [256 x i8]* %3, i64 0, i64 %33
  store i8 %61, i8* %62, align 1, !tbaa !9
  %63 = add nuw nsw i64 %23, 2
  %64 = add i64 %24, -2
  %65 = icmp eq i64 %64, 0
  br i1 %65, label %36, label %22, !llvm.loop !12
}

; Function Attrs: argmemonly mustprogress nofree nosync nounwind willreturn
declare void @llvm.lifetime.start.p0i8(i64 immarg, i8* nocapture) #1

; Function Attrs: nofree nounwind
declare noundef i32 @__isoc99_scanf(i8* nocapture noundef readonly, ...) local_unnamed_addr #2

; Function Attrs: argmemonly mustprogress nofree nounwind readonly willreturn
declare i64 @strlen(i8* nocapture) local_unnamed_addr #3

; Function Attrs: argmemonly mustprogress nofree nosync nounwind willreturn
declare void @llvm.lifetime.end.p0i8(i64 immarg, i8* nocapture) #1

; Function Attrs: nofree nounwind
declare noundef i32 @puts(i8* nocapture noundef readonly) local_unnamed_addr #4


!llvm.module.flags = !{!0, !1, !2, !3}
!llvm.ident = !{!4}

!0 = !{i32 1, !"wchar_size", i32 4}
!1 = !{i32 7, !"PIC Level", i32 2}
!2 = !{i32 7, !"PIE Level", i32 2}
!3 = !{i32 7, !"uwtable", i32 1}
!4 = !{!"clang version 13.0.0"}
!5 = !{!6, !6, i64 0}
!6 = !{!"int", !7, i64 0}
!7 = !{!"omnipotent char", !8, i64 0}
!8 = !{!"Simple C/C++ TBAA"}
!9 = !{!7, !7, i64 0}
!10 = distinct !{!10, !11}
!11 = !{!"llvm.loop.mustprogress"}
!12 = distinct !{!12, !11}
